(lp0
S'poi'
p1
aS'total_stock_value'
p2
aS'exercised_stock_options'
p3
aS'bonus'
p4
aS'salary'
p5
aS'total_revenue'
p6
aS'bonus_ratio'
p7
aS'deferred_income'
p8
aS'long_term_incentive'
p9
aS'total_payments'
p10
aS'restricted_stock'
p11
a.